; ModuleID = '41/106.cpp'
source_filename = "41/106.cpp"
target datalayout = "e-m:e-p270:32:32-p271:32:32-p272:64:64-i64:64-f80:128-n8:16:32:64-S128"
target triple = "x86_64-pc-linux-gnu"

%"class.std::ios_base::Init" = type { i8 }
%"class.std::basic_ostream" = type { i32 (...)**, %"class.std::basic_ios" }
%"class.std::basic_ios" = type { %"class.std::ios_base", %"class.std::basic_ostream"*, i8, i8, %"class.std::basic_streambuf"*, %"class.std::ctype"*, %"class.std::num_put"*, %"class.std::num_get"* }
%"class.std::ios_base" = type { i32 (...)**, i64, i64, i32, i32, i32, %"struct.std::ios_base::_Callback_list"*, %"struct.std::ios_base::_Words", [8 x %"struct.std::ios_base::_Words"], i32, %"struct.std::ios_base::_Words"*, %"class.std::locale" }
%"struct.std::ios_base::_Callback_list" = type { %"struct.std::ios_base::_Callback_list"*, void (i32, %"class.std::ios_base"*, i32)*, i32, i32 }
%"struct.std::ios_base::_Words" = type { i8*, i64 }
%"class.std::locale" = type { %"class.std::locale::_Impl"* }
%"class.std::locale::_Impl" = type { i32, %"class.std::locale::facet"**, i64, %"class.std::locale::facet"**, i8** }
%"class.std::locale::facet" = type <{ i32 (...)**, i32, [4 x i8] }>
%"class.std::basic_streambuf" = type { i32 (...)**, i8*, i8*, i8*, i8*, i8*, i8*, %"class.std::locale" }
%"class.std::ctype" = type <{ %"class.std::locale::facet.base", [4 x i8], %struct.__locale_struct*, i8, [7 x i8], i32*, i32*, i16*, i8, [256 x i8], [256 x i8], i8, [6 x i8] }>
%"class.std::locale::facet.base" = type <{ i32 (...)**, i32 }>
%struct.__locale_struct = type { [13 x %struct.__locale_data*], i16*, i32*, i32*, [13 x i8*] }
%struct.__locale_data = type opaque
%"class.std::num_put" = type { %"class.std::locale::facet.base", [4 x i8] }
%"class.std::num_get" = type { %"class.std::locale::facet.base", [4 x i8] }

@_ZStL8__ioinit = internal global %"class.std::ios_base::Init" zeroinitializer, align 1
@__dso_handle = external hidden global i8
@_ZSt4cout = external dso_local global %"class.std::basic_ostream", align 8
@.str = private unnamed_addr constant [2 x i8] c" \00", align 1
@llvm.global_ctors = appending global [1 x { i32, void ()*, i8* }] [{ i32, void ()*, i8* } { i32 65535, void ()* @_GLOBAL__sub_I_106.cpp, i8* null }]

; Function Attrs: noinline uwtable
define internal void @__cxx_global_var_init() #0 section ".text.startup" {
  call void @_ZNSt8ios_base4InitC1Ev(%"class.std::ios_base::Init"* @_ZStL8__ioinit)
  %1 = call i32 @__cxa_atexit(void (i8*)* bitcast (void (%"class.std::ios_base::Init"*)* @_ZNSt8ios_base4InitD1Ev to void (i8*)*), i8* getelementptr inbounds (%"class.std::ios_base::Init", %"class.std::ios_base::Init"* @_ZStL8__ioinit, i32 0, i32 0), i8* @__dso_handle) #3
  ret void
}

declare dso_local void @_ZNSt8ios_base4InitC1Ev(%"class.std::ios_base::Init"*) unnamed_addr #1

; Function Attrs: nounwind
declare dso_local void @_ZNSt8ios_base4InitD1Ev(%"class.std::ios_base::Init"*) unnamed_addr #2

; Function Attrs: nounwind
declare dso_local i32 @__cxa_atexit(void (i8*)*, i8*, i8*) #3

; Function Attrs: noinline norecurse uwtable
define dso_local i32 @main() #4 {
  %1 = alloca i32, align 4
  %2 = alloca [6 x i32], align 16
  %3 = alloca [6 x i32], align 16
  %4 = alloca i32, align 4
  %5 = alloca i32, align 4
  %6 = alloca i32, align 4
  %7 = alloca i32, align 4
  %8 = alloca i32, align 4
  %9 = alloca i32, align 4
  store i32 0, i32* %1, align 4
  %10 = bitcast [6 x i32]* %2 to i8*
  call void @llvm.memset.p0i8.i64(i8* align 16 %10, i8 0, i64 24, i1 false)
  %11 = bitcast [6 x i32]* %3 to i8*
  call void @llvm.memset.p0i8.i64(i8* align 16 %11, i8 0, i64 24, i1 false)
  store i32 1, i32* %5, align 4
  store i32 1, i32* %6, align 4
  br label %12

12:                                               ; preds = %195, %0
  %13 = load i32, i32* %6, align 4
  %14 = icmp sle i32 %13, 5
  br i1 %14, label %15, label %198

15:                                               ; preds = %12
  %16 = load i32, i32* %6, align 4
  %17 = getelementptr inbounds [6 x i32], [6 x i32]* %2, i64 0, i64 1
  store i32 %16, i32* %17, align 4
  store i32 1, i32* %7, align 4
  br label %18

18:                                               ; preds = %191, %15
  %19 = load i32, i32* %7, align 4
  %20 = icmp sle i32 %19, 5
  br i1 %20, label %21, label %194

21:                                               ; preds = %18
  %22 = load i32, i32* %7, align 4
  %23 = load i32, i32* %6, align 4
  %24 = icmp eq i32 %22, %23
  br i1 %24, label %25, label %26

25:                                               ; preds = %21
  br label %191

26:                                               ; preds = %21
  %27 = load i32, i32* %7, align 4
  %28 = getelementptr inbounds [6 x i32], [6 x i32]* %2, i64 0, i64 2
  store i32 %27, i32* %28, align 8
  store i32 1, i32* %8, align 4
  br label %29

29:                                               ; preds = %187, %26
  %30 = load i32, i32* %8, align 4
  %31 = icmp sle i32 %30, 5
  br i1 %31, label %32, label %190

32:                                               ; preds = %29
  %33 = load i32, i32* %8, align 4
  %34 = load i32, i32* %6, align 4
  %35 = icmp eq i32 %33, %34
  br i1 %35, label %40, label %36

36:                                               ; preds = %32
  %37 = load i32, i32* %8, align 4
  %38 = load i32, i32* %7, align 4
  %39 = icmp eq i32 %37, %38
  br i1 %39, label %40, label %41

40:                                               ; preds = %36, %32
  br label %187

41:                                               ; preds = %36
  %42 = load i32, i32* %8, align 4
  %43 = getelementptr inbounds [6 x i32], [6 x i32]* %2, i64 0, i64 3
  store i32 %42, i32* %43, align 4
  store i32 1, i32* %9, align 4
  br label %44

44:                                               ; preds = %183, %41
  %45 = load i32, i32* %9, align 4
  %46 = icmp sle i32 %45, 5
  br i1 %46, label %47, label %186

47:                                               ; preds = %44
  store i32 1, i32* %5, align 4
  %48 = load i32, i32* %9, align 4
  %49 = load i32, i32* %6, align 4
  %50 = icmp eq i32 %48, %49
  br i1 %50, label %59, label %51

51:                                               ; preds = %47
  %52 = load i32, i32* %9, align 4
  %53 = load i32, i32* %7, align 4
  %54 = icmp eq i32 %52, %53
  br i1 %54, label %59, label %55

55:                                               ; preds = %51
  %56 = load i32, i32* %9, align 4
  %57 = load i32, i32* %8, align 4
  %58 = icmp eq i32 %56, %57
  br i1 %58, label %59, label %60

59:                                               ; preds = %55, %51, %47
  br label %183

60:                                               ; preds = %55
  %61 = load i32, i32* %9, align 4
  %62 = getelementptr inbounds [6 x i32], [6 x i32]* %2, i64 0, i64 4
  store i32 %61, i32* %62, align 16
  %63 = load i32, i32* %6, align 4
  %64 = sub nsw i32 15, %63
  %65 = load i32, i32* %7, align 4
  %66 = sub nsw i32 %64, %65
  %67 = load i32, i32* %8, align 4
  %68 = sub nsw i32 %66, %67
  %69 = load i32, i32* %9, align 4
  %70 = sub nsw i32 %68, %69
  %71 = getelementptr inbounds [6 x i32], [6 x i32]* %2, i64 0, i64 5
  store i32 %70, i32* %71, align 4
  %72 = getelementptr inbounds [6 x i32], [6 x i32]* %2, i64 0, i64 5
  %73 = load i32, i32* %72, align 4
  %74 = load i32, i32* %6, align 4
  %75 = icmp eq i32 %73, %74
  br i1 %75, label %99, label %76

76:                                               ; preds = %60
  %77 = getelementptr inbounds [6 x i32], [6 x i32]* %2, i64 0, i64 5
  %78 = load i32, i32* %77, align 4
  %79 = load i32, i32* %7, align 4
  %80 = icmp eq i32 %78, %79
  br i1 %80, label %99, label %81

81:                                               ; preds = %76
  %82 = getelementptr inbounds [6 x i32], [6 x i32]* %2, i64 0, i64 5
  %83 = load i32, i32* %82, align 4
  %84 = load i32, i32* %8, align 4
  %85 = icmp eq i32 %83, %84
  br i1 %85, label %99, label %86

86:                                               ; preds = %81
  %87 = getelementptr inbounds [6 x i32], [6 x i32]* %2, i64 0, i64 5
  %88 = load i32, i32* %87, align 4
  %89 = load i32, i32* %9, align 4
  %90 = icmp eq i32 %88, %89
  br i1 %90, label %99, label %91

91:                                               ; preds = %86
  %92 = getelementptr inbounds [6 x i32], [6 x i32]* %2, i64 0, i64 5
  %93 = load i32, i32* %92, align 4
  %94 = icmp eq i32 %93, 2
  br i1 %94, label %99, label %95

95:                                               ; preds = %91
  %96 = getelementptr inbounds [6 x i32], [6 x i32]* %2, i64 0, i64 5
  %97 = load i32, i32* %96, align 4
  %98 = icmp eq i32 %97, 3
  br i1 %98, label %99, label %100

99:                                               ; preds = %95, %91, %86, %81, %76, %60
  br label %183

100:                                              ; preds = %95
  %101 = getelementptr inbounds [6 x i32], [6 x i32]* %2, i64 0, i64 5
  %102 = load i32, i32* %101, align 4
  %103 = icmp eq i32 %102, 1
  %104 = zext i1 %103 to i32
  %105 = getelementptr inbounds [6 x i32], [6 x i32]* %3, i64 0, i64 1
  store i32 %104, i32* %105, align 4
  %106 = getelementptr inbounds [6 x i32], [6 x i32]* %2, i64 0, i64 2
  %107 = load i32, i32* %106, align 8
  %108 = icmp eq i32 %107, 2
  %109 = zext i1 %108 to i32
  %110 = getelementptr inbounds [6 x i32], [6 x i32]* %3, i64 0, i64 2
  store i32 %109, i32* %110, align 8
  %111 = getelementptr inbounds [6 x i32], [6 x i32]* %2, i64 0, i64 1
  %112 = load i32, i32* %111, align 4
  %113 = icmp eq i32 %112, 5
  %114 = zext i1 %113 to i32
  %115 = getelementptr inbounds [6 x i32], [6 x i32]* %3, i64 0, i64 3
  store i32 %114, i32* %115, align 4
  %116 = getelementptr inbounds [6 x i32], [6 x i32]* %2, i64 0, i64 3
  %117 = load i32, i32* %116, align 4
  %118 = icmp ne i32 %117, 1
  %119 = zext i1 %118 to i32
  %120 = getelementptr inbounds [6 x i32], [6 x i32]* %3, i64 0, i64 4
  store i32 %119, i32* %120, align 16
  %121 = getelementptr inbounds [6 x i32], [6 x i32]* %2, i64 0, i64 4
  %122 = load i32, i32* %121, align 16
  %123 = icmp eq i32 %122, 1
  %124 = zext i1 %123 to i32
  %125 = getelementptr inbounds [6 x i32], [6 x i32]* %3, i64 0, i64 5
  store i32 %124, i32* %125, align 4
  store i32 1, i32* %4, align 4
  br label %126

126:                                              ; preds = %158, %100
  %127 = load i32, i32* %4, align 4
  %128 = icmp sle i32 %127, 5
  br i1 %128, label %129, label %161

129:                                              ; preds = %126
  %130 = load i32, i32* %4, align 4
  %131 = sext i32 %130 to i64
  %132 = getelementptr inbounds [6 x i32], [6 x i32]* %2, i64 0, i64 %131
  %133 = load i32, i32* %132, align 4
  %134 = icmp eq i32 %133, 1
  br i1 %134, label %141, label %135

135:                                              ; preds = %129
  %136 = load i32, i32* %4, align 4
  %137 = sext i32 %136 to i64
  %138 = getelementptr inbounds [6 x i32], [6 x i32]* %2, i64 0, i64 %137
  %139 = load i32, i32* %138, align 4
  %140 = icmp eq i32 %139, 2
  br i1 %140, label %141, label %149

141:                                              ; preds = %135, %129
  %142 = load i32, i32* %4, align 4
  %143 = sext i32 %142 to i64
  %144 = getelementptr inbounds [6 x i32], [6 x i32]* %3, i64 0, i64 %143
  %145 = load i32, i32* %144, align 4
  %146 = icmp eq i32 %145, 0
  br i1 %146, label %147, label %148

147:                                              ; preds = %141
  store i32 0, i32* %5, align 4
  br label %148

148:                                              ; preds = %147, %141
  br label %157

149:                                              ; preds = %135
  %150 = load i32, i32* %4, align 4
  %151 = sext i32 %150 to i64
  %152 = getelementptr inbounds [6 x i32], [6 x i32]* %3, i64 0, i64 %151
  %153 = load i32, i32* %152, align 4
  %154 = icmp eq i32 %153, 1
  br i1 %154, label %155, label %156

155:                                              ; preds = %149
  store i32 0, i32* %5, align 4
  br label %156

156:                                              ; preds = %155, %149
  br label %157

157:                                              ; preds = %156, %148
  br label %158

158:                                              ; preds = %157
  %159 = load i32, i32* %4, align 4
  %160 = add nsw i32 %159, 1
  store i32 %160, i32* %4, align 4
  br label %126

161:                                              ; preds = %126
  %162 = load i32, i32* %5, align 4
  %163 = icmp eq i32 %162, 1
  br i1 %163, label %164, label %182

164:                                              ; preds = %161
  store i32 1, i32* %4, align 4
  br label %165

165:                                              ; preds = %175, %164
  %166 = load i32, i32* %4, align 4
  %167 = icmp sle i32 %166, 4
  br i1 %167, label %168, label %178

168:                                              ; preds = %165
  %169 = load i32, i32* %4, align 4
  %170 = sext i32 %169 to i64
  %171 = getelementptr inbounds [6 x i32], [6 x i32]* %2, i64 0, i64 %170
  %172 = load i32, i32* %171, align 4
  %173 = call dereferenceable(272) %"class.std::basic_ostream"* @_ZNSolsEi(%"class.std::basic_ostream"* @_ZSt4cout, i32 %172)
  %174 = call dereferenceable(272) %"class.std::basic_ostream"* @_ZStlsISt11char_traitsIcEERSt13basic_ostreamIcT_ES5_PKc(%"class.std::basic_ostream"* dereferenceable(272) %173, i8* getelementptr inbounds ([2 x i8], [2 x i8]* @.str, i64 0, i64 0))
  br label %175

175:                                              ; preds = %168
  %176 = load i32, i32* %4, align 4
  %177 = add nsw i32 %176, 1
  store i32 %177, i32* %4, align 4
  br label %165

178:                                              ; preds = %165
  %179 = getelementptr inbounds [6 x i32], [6 x i32]* %2, i64 0, i64 5
  %180 = load i32, i32* %179, align 4
  %181 = call dereferenceable(272) %"class.std::basic_ostream"* @_ZNSolsEi(%"class.std::basic_ostream"* @_ZSt4cout, i32 %180)
  br label %182

182:                                              ; preds = %178, %161
  br label %183

183:                                              ; preds = %182, %99, %59
  %184 = load i32, i32* %9, align 4
  %185 = add nsw i32 %184, 1
  store i32 %185, i32* %9, align 4
  br label %44

186:                                              ; preds = %44
  br label %187

187:                                              ; preds = %186, %40
  %188 = load i32, i32* %8, align 4
  %189 = add nsw i32 %188, 1
  store i32 %189, i32* %8, align 4
  br label %29

190:                                              ; preds = %29
  br label %191

191:                                              ; preds = %190, %25
  %192 = load i32, i32* %7, align 4
  %193 = add nsw i32 %192, 1
  store i32 %193, i32* %7, align 4
  br label %18

194:                                              ; preds = %18
  br label %195

195:                                              ; preds = %194
  %196 = load i32, i32* %6, align 4
  %197 = add nsw i32 %196, 1
  store i32 %197, i32* %6, align 4
  br label %12

198:                                              ; preds = %12
  ret i32 0
}

; Function Attrs: argmemonly nounwind willreturn
declare void @llvm.memset.p0i8.i64(i8* nocapture writeonly, i8, i64, i1 immarg) #5

declare dso_local dereferenceable(272) %"class.std::basic_ostream"* @_ZStlsISt11char_traitsIcEERSt13basic_ostreamIcT_ES5_PKc(%"class.std::basic_ostream"* dereferenceable(272), i8*) #1

declare dso_local dereferenceable(272) %"class.std::basic_ostream"* @_ZNSolsEi(%"class.std::basic_ostream"*, i32) #1

; Function Attrs: noinline uwtable
define internal void @_GLOBAL__sub_I_106.cpp() #0 section ".text.startup" {
  call void @__cxx_global_var_init()
  ret void
}


!llvm.module.flags = !{!0}
!llvm.ident = !{!1}

!0 = !{i32 1, !"wchar_size", i32 4}
!1 = !{!"clang version 10.0.0-4ubuntu1 "}
